(lp0
(lp1
ccopy_reg
_reconstructor
p2
(cbirmingham_cabinet.models
Claim
p3
c__builtin__
object
p4
Ntp5
Rp6
(dp7
S'_sa_instance_state'
p8
g2
(csqlalchemy.orm.state
InstanceState
p9
g4
Ntp10
Rp11
(dp12
S'class_'
p13
g3
sS'modified'
p14
I00
sS'committed_state'
p15
(dp16
sS'instance'
p17
g6
sS'callables'
p18
(dp19
sS'key'
p20
(g3
(I1
tp21
tp22
sS'expired'
p23
I00
sbsS'submitted_at'
p24
cdatetime
datetime
p25
(S'\x07\xdd\x0b\x1c\x15\x02$\x0b\xff\xa5'
p26
tp27
Rp28
sS'employer_id'
p29
NsS'claimant_information'
p30
(dp31
Vnumber_of_days_owed
p32
V"5"
p33
sVowed
p34
V"Yes"
p35
sVwage_owed_from
p36
V"01/01/2013"
p37
sVgross_amount_owed
p38
V"700"
p39
sVwage_owed_to
p40
V"02/01/2013"
p41
ssS'employee_record'
p42
(dp43
Vemployee_date_of_birth
p44
V"06/21/1969"
p45
sVemployee_title
p46
V"Mr"
p47
sVemployee_owed_wages_in_arrears
p48
V"950"
p49
sVemployer_name
p50
V"F M Morgan Ltd"
p51
sVemployee_holiday_owed
p52
V"10"
p53
sVemployee_basic_weekly_pay
p54
V"475"
p55
sVemployee_surname
p56
V"Jones"
p57
sVemployee_national_insurance_number
p58
V"MB435478C"
p59
sVemployee_forenames
p60
V"Robert"
p61
ssS'claim_id'
p62
I1
sbaa(lp63
a(lp64
a(lp65
g2
(cbirmingham_cabinet.models
Employee
p66
g4
Ntp67
Rp68
(dp69
g8
g2
(g9
g4
Ntp70
Rp71
(dp72
g13
g66
sg14
I00
sg15
(dp73
sg17
g68
sg18
(dp74
sg20
(g66
(I1
tp75
tp76
sg23
I00
sbsS'surname'
p77
VJones
p78
sS'hstore'
p79
(dp80
Vemployee_date_of_birth
p81
V"06/21/1969"
p82
sVemployee_title
p83
V"Mr"
p84
sVemployee_owed_wages_in_arrears
p85
V"950"
p86
sVemployer_name
p87
V"F M Morgan Ltd"
p88
sVemployee_holiday_owed
p89
V"10"
p90
sVemployee_basic_weekly_pay
p91
V"475"
p92
sVemployee_surname
p93
V"Jones"
p94
sVemployee_national_insurance_number
p95
V"MB435478C"
p96
sVemployee_forenames
p97
V"Robert"
p98
ssS'forenames'
p99
VRobert
p100
sS'title'
p101
VMr
p102
sS'date_of_birth'
p103
cdatetime
date
p104
(S'\x07\xb1\x06\x15'
p105
tp106
Rp107
sS'employer_name'
p108
VF M Morgan Ltd
p109
sS'employee_id'
p110
I1
sS'ip_number'
p111
V12345
p112
sS'nino'
p113
VMB435478C
p114
sbag2
(g66
g4
Ntp115
Rp116
(dp117
g8
g2
(g9
g4
Ntp118
Rp119
(dp120
g13
g66
sg14
I00
sg15
(dp121
sg17
g116
sg18
(dp122
sg20
(g66
(I2
tp123
tp124
sg23
I00
sbsg77
VJones
p125
sg79
(dp126
Vemployee_date_of_birth
p127
V"06/21/1969"
p128
sVemployee_title
p129
V"Mr"
p130
sVemployee_owed_wages_in_arrears
p131
V"950"
p132
sVemployer_name
p133
V"F M Morgan Ltd"
p134
sVemployee_holiday_owed
p135
V"10"
p136
sVemployee_basic_weekly_pay
p137
V"475"
p138
sVemployee_surname
p139
V"Jones"
p140
sVemployee_national_insurance_number
p141
V"MB435464C"
p142
sVemployee_forenames
p143
V"Robert"
p144
ssg99
VRobert
p145
sg101
VMr
p146
sg103
g104
(S'\x07\xb1\x06\x15'
p147
tp148
Rp149
sg108
VF M Morgan Ltd
p150
sg110
I2
sg111
V12345
p151
sg113
VMB435464C
p152
sbag2
(g66
g4
Ntp153
Rp154
(dp155
g8
g2
(g9
g4
Ntp156
Rp157
(dp158
g13
g66
sg14
I00
sg15
(dp159
sg17
g154
sg18
(dp160
sg20
(g66
(I3
tp161
tp162
sg23
I00
sbsg77
VJones
p163
sg79
(dp164
Vemployee_date_of_birth
p165
V"06/21/1969"
p166
sVemployee_title
p167
V"Mr"
p168
sVemployee_owed_wages_in_arrears
p169
V"950"
p170
sVemployer_name
p171
V"F M Morgan Ltd"
p172
sVemployee_holiday_owed
p173
V"10"
p174
sVemployee_basic_weekly_pay
p175
V"475"
p176
sVemployee_surname
p177
V"Jones"
p178
sVemployee_national_insurance_number
p179
V"MB435432C"
p180
sVemployee_forenames
p181
V"Robert"
p182
ssg99
VRobert
p183
sg101
VMr
p184
sg103
g104
(S'\x07\xb1\x06\x15'
p185
tp186
Rp187
sg108
VF M Morgan Ltd
p188
sg110
I3
sg111
V12345
p189
sg113
VMB435432C
p190
sbag2
(g66
g4
Ntp191
Rp192
(dp193
g8
g2
(g9
g4
Ntp194
Rp195
(dp196
g13
g66
sg14
I00
sg15
(dp197
sg17
g192
sg18
(dp198
sg20
(g66
(I4
tp199
tp200
sg23
I00
sbsg77
VJones
p201
sg79
(dp202
Vemployee_date_of_birth
p203
V"06/21/1969"
p204
sVemployee_title
p205
V"Mr"
p206
sVemployee_owed_wages_in_arrears
p207
V"950"
p208
sVemployer_name
p209
V"F M Morgan Ltd"
p210
sVemployee_holiday_owed
p211
V"10"
p212
sVemployee_basic_weekly_pay
p213
V"475"
p214
sVemployee_surname
p215
V"Jones"
p216
sVemployee_national_insurance_number
p217
V"MB435416C"
p218
sVemployee_forenames
p219
V"Robert"
p220
ssg99
VRobert
p221
sg101
VMr
p222
sg103
g104
(S'\x07\xb1\x06\x15'
p223
tp224
Rp225
sg108
VF M Morgan Ltd
p226
sg110
I4
sg111
V12345
p227
sg113
VMB435416C
p228
sbag2
(g66
g4
Ntp229
Rp230
(dp231
g8
g2
(g9
g4
Ntp232
Rp233
(dp234
g13
g66
sg14
I00
sg15
(dp235
sg17
g230
sg18
(dp236
sg20
(g66
(I5
tp237
tp238
sg23
I00
sbsg77
VJones
p239
sg79
(dp240
Vemployee_date_of_birth
p241
V"06/21/1969"
p242
sVemployee_title
p243
V"Mr"
p244
sVemployee_owed_wages_in_arrears
p245
V"950"
p246
sVemployer_name
p247
V"F M Morgan Ltd"
p248
sVemployee_holiday_owed
p249
V"10"
p250
sVemployee_basic_weekly_pay
p251
V"475"
p252
sVemployee_surname
p253
V"Jones"
p254
sVemployee_national_insurance_number
p255
V"MB435408C"
p256
sVemployee_forenames
p257
V"Robert"
p258
ssg99
VRobert
p259
sg101
VMr
p260
sg103
g104
(S'\x07\xb1\x06\x15'
p261
tp262
Rp263
sg108
VF M Morgan Ltd
p264
sg110
I5
sg111
V12345
p265
sg113
VMB435408C
p266
sbag2
(g66
g4
Ntp267
Rp268
(dp269
g8
g2
(g9
g4
Ntp270
Rp271
(dp272
g13
g66
sg14
I00
sg15
(dp273
sg17
g268
sg18
(dp274
sg20
(g66
(I6
tp275
tp276
sg23
I00
sbsg77
VJones
p277
sg79
(dp278
Vemployee_date_of_birth
p279
V"06/21/1969"
p280
sVemployee_title
p281
V"Mr"
p282
sVemployee_owed_wages_in_arrears
p283
V"950"
p284
sVemployer_name
p285
V"F M Morgan Ltd"
p286
sVemployee_holiday_owed
p287
V"10"
p288
sVemployee_basic_weekly_pay
p289
V"475"
p290
sVemployee_surname
p291
V"Jones"
p292
sVemployee_national_insurance_number
p293
V"MB435424C"
p294
sVemployee_forenames
p295
V"Robert"
p296
ssg99
VRobert
p297
sg101
VMr
p298
sg103
g104
(S'\x07\xb1\x06\x15'
p299
tp300
Rp301
sg108
VF M Morgan Ltd
p302
sg110
I6
sg111
V12345
p303
sg113
VMB435424C
p304
sbaa.